(lp1
(S'QPSK'
p2
I2
tp3
a(S'PAM4'
p4
I8
tp5
a(S'AM-DSB'
p6
I-4
tp7
a(S'GFSK'
p8
I6
tp9
a(S'QAM64'
p10
I8
tp11
a(S'AM-SSB'
p12
I12
tp13
a(g4
I18
tp14
a(g10
I-6
tp15
a(S'QAM16'
p16
I2
tp17
a(g16
I-20
tp18
a(S'8PSK'
p19
I-18
tp20
a(g4
I-6
tp21
a(S'WBFM'
p22
I-18
tp23
a(S'BPSK'
p24
I8
tp25
a(S'CPFSK'
p26
I10
tp27
a(g22
I6
tp28
a(g24
I4
tp29
a(g24
I-2
tp30
a(g2
I-20
tp31
a(g26
I-8
tp32
a(g12
I6
tp33
a(g10
I-20
tp34
a(g16
I12
tp35
a(g8
I-20
tp36
a(g12
I-12
tp37
a(g26
I0
tp38
a(g6
I6
tp39
a(g24
I-16
tp40
a(g2
I-6
tp41
a(g19
I-12
tp42
a(g26
I-18
tp43
a(g6
I-18
tp44
a(g2
I8
tp45
a(g4
I14
tp46
a(g22
I-8
tp47
a(g6
I-10
tp48
a(g8
I12
tp49
a(g10
I2
tp50
a(g19
I-10
tp51
a(g12
I-18
tp52
a(g10
I-4
tp53
a(g8
I-4
tp54
a(g6
I8
tp55
a(g4
I-16
tp56
a(g2
I-16
tp57
a(g24
I16
tp58
a(g22
I-14
tp59
a(g26
I16
tp60
a(g22
I0
tp61
a(g2
I6
tp62
a(g24
I14
tp63
a(g6
I-8
tp64
a(g8
I-10
tp65
a(g26
I-2
tp66
a(g12
I8
tp67
a(g16
I8
tp68
a(g16
I6
tp69
a(g16
I-16
tp70
a(g10
I18
tp71
a(g12
I-2
tp72
a(g26
I6
tp73
a(g24
I0
tp74
a(g24
I-6
tp75
a(g19
I-14
tp76
a(g26
I-12
tp77
a(g12
I2
tp78
a(g22
I10
tp79
a(g24
I-20
tp80
a(g4
I4
tp81
a(g8
I10
tp82
a(g16
I-6
tp83
a(g10
I4
tp84
a(g4
I-20
tp85
a(g19
I10
tp86
a(g12
I-16
tp87
a(g10
I-10
tp88
a(g8
I-6
tp89
a(g6
I2
tp90
a(g4
I-10
tp91
a(g2
I-2
tp92
a(g19
I-8
tp93
a(g19
I0
tp94
a(g2
I12
tp95
a(g19
I12
tp96
a(g6
I-14
tp97
a(g8
I0
tp98
a(g10
I14
tp99
a(g12
I18
tp100
a(g10
I-8
tp101
a(g16
I0
tp102
a(g8
I-16
tp103
a(g22
I2
tp104
a(g4
I-4
tp105
a(g2
I-12
tp106
a(g22
I-20
tp107
a(g26
I12
tp108
a(g22
I4
tp109
a(g24
I10
tp110
a(g24
I-4
tp111
a(g2
I-18
tp112
a(g26
I-6
tp113
a(g12
I4
tp114
a(g24
I-12
tp115
a(g19
I16
tp116
a(g16
I10
tp117
a(g16
I-12
tp118
a(g22
I-6
tp119
a(g19
I-20
tp120
a(g12
I-6
tp121
a(g26
I2
tp122
a(g2
I16
tp123
a(g6
I4
tp124
a(g24
I-10
tp125
a(g22
I-4
tp126
a(g26
I-16
tp127
a(g22
I-16
tp128
a(g2
I10
tp129
a(g4
I0
tp130
a(g6
I-12
tp131
a(g8
I14
tp132
a(g16
I-2
tp133
a(g10
I0
tp134
a(g22
I-10
tp135
a(g12
I-20
tp136
a(g10
I-14
tp137
a(g8
I-2
tp138
a(g6
I14
tp139
a(g4
I-14
tp140
a(g2
I-14
tp141
a(g19
I-4
tp142
a(g26
I18
tp143
a(g19
I4
tp144
a(g2
I0
tp145
a(g24
I12
tp146
a(g6
I-2
tp147
a(g8
I4
tp148
a(g10
I10
tp149
a(g12
I14
tp150
a(g19
I2
tp151
a(g16
I-10
tp152
a(g4
I16
tp153
a(g16
I4
tp154
a(g8
I8
tp155
a(g16
I-18
tp156
a(g10
I16
tp157
a(g4
I-8
tp158
a(g22
I16
tp159
a(g22
I14
tp160
a(g12
I-4
tp161
a(g26
I8
tp162
a(g24
I6
tp163
a(g24
I-8
tp164
a(g26
I-10
tp165
a(g12
I0
tp166
a(g4
I6
tp167
a(g10
I-18
tp168
a(g16
I14
tp169
a(g16
I-8
tp170
a(g4
I-18
tp171
a(g6
I18
tp172
a(g12
I-10
tp173
a(g10
I-12
tp174
a(g6
I0
tp175
a(g24
I-14
tp176
a(g2
I-8
tp177
a(g19
I-6
tp178
a(g26
I-20
tp179
a(g8
I16
tp180
a(g22
I8
tp181
a(g2
I14
tp182
a(g4
I12
tp183
a(g6
I-16
tp184
a(g8
I2
tp185
a(g24
I-18
tp186
a(g10
I12
tp187
a(g12
I16
tp188
a(g12
I-14
tp189
a(g10
I-2
tp190
a(g19
I14
tp191
a(g8
I-14
tp192
a(g24
I18
tp193
a(g4
I-2
tp194
a(g2
I-10
tp195
a(g26
I14
tp196
a(g19
I8
tp197
a(g2
I4
tp198
a(g6
I16
tp199
a(g6
I-6
tp200
a(g26
I-4
tp201
a(g12
I10
tp202
a(g22
I-2
tp203
a(g19
I18
tp204
a(g8
I18
tp205
a(g16
I-14
tp206
a(g6
I10
tp207
a(g22
I-12
tp208
a(g12
I-8
tp209
a(g26
I4
tp210
a(g2
I18
tp211
a(g24
I2
tp212
a(g6
I-20
tp213
a(g19
I-16
tp214
a(g26
I-14
tp215
a(g22
I18
tp216
a(g4
I2
tp217
a(g16
I18
tp218
a(g16
I-4
tp219
a(g10
I6
tp220
a(g8
I-18
tp221
a(g4
I10
tp222
a(g10
I-16
tp223
a(g16
I16
tp224
a(g8
I-8
tp225
a(g6
I12
tp226
a(g4
I-12
tp227
a(g2
I-4
tp228
a(g19
I-2
tp229
a(g8
I-12
tp230
a(g19
I6
tp231
a(g22
I12
tp232
a.